target datalayout = "e-m:e-p270:32:32-p271:32:32-p272:64:64-i64:64-i128:128-f80:128-n8:16:32:64-S128"
target triple = "x86_64-unknown-linux-gnu"

%struct.sp_int = type { i32, i32, [129 x i64] }

; Function Attrs: nounwind uwtable
define i32 @wc_ecc_rs_to_sig(ptr noundef %r, ptr noundef %s, ptr noundef %out, ptr noundef %outlen) #0 {
entry:
  %retval = alloca i32, align 4
  %r.addr = alloca ptr, align 8
  %s.addr = alloca ptr, align 8
  %out.addr = alloca ptr, align 8
  %outlen.addr = alloca ptr, align 8
  %err = alloca i32, align 4
  %rtmp = alloca [1 x %struct.sp_int], align 16
  %stmp = alloca [1 x %struct.sp_int], align 16
  store ptr %r, ptr %r.addr, align 8
  store ptr %s, ptr %s.addr, align 8
  store ptr %out, ptr %out.addr, align 8
  store ptr %outlen, ptr %outlen.addr, align 8
  %0 = load ptr, ptr %r.addr, align 8
  %cmp = icmp eq ptr %0, null
  br i1 %cmp, label %if.then, label %lor.lhs.false

lor.lhs.false:                                    ; preds = %entry
  %1 = load ptr, ptr %s.addr, align 8
  %cmp1 = icmp eq ptr %1, null
  br i1 %cmp1, label %if.then, label %lor.lhs.false2

lor.lhs.false2:                                   ; preds = %lor.lhs.false
  %2 = load ptr, ptr %out.addr, align 8
  %cmp3 = icmp eq ptr %2, null
  br i1 %cmp3, label %if.then, label %lor.lhs.false4

lor.lhs.false4:                                   ; preds = %lor.lhs.false2
  %3 = load ptr, ptr %outlen.addr, align 8
  %cmp5 = icmp eq ptr %3, null
  br i1 %cmp5, label %if.then, label %if.end

if.then:                                          ; preds = %lor.lhs.false4, %lor.lhs.false2, %lor.lhs.false, %entry
  store i32 -170, ptr %retval, align 4
  br label %return

if.end:                                           ; preds = %lor.lhs.false4
  %arraydecay = getelementptr inbounds [1 x %struct.sp_int], ptr %rtmp, i64 0, i64 0
  %arraydecay6 = getelementptr inbounds [1 x %struct.sp_int], ptr %stmp, i64 0, i64 0
  %call = call i32 @sp_init_multi(ptr noundef %arraydecay, ptr noundef %arraydecay6, ptr noundef null, ptr noundef null, ptr noundef null, ptr noundef null)
  store i32 %call, ptr %err, align 4
  %4 = load i32, ptr %err, align 4
  %cmp7 = icmp ne i32 %4, 0
  br i1 %cmp7, label %if.then8, label %if.end9

if.then8:                                         ; preds = %if.end
  %5 = load i32, ptr %err, align 4
  store i32 %5, ptr %retval, align 4
  br label %return

if.end9:                                          ; preds = %if.end
  %arraydecay10 = getelementptr inbounds [1 x %struct.sp_int], ptr %rtmp, i64 0, i64 0
  %6 = load ptr, ptr %r.addr, align 8
  %call11 = call i32 @sp_read_radix(ptr noundef %arraydecay10, ptr noundef %6, i32 noundef 16)
  store i32 %call11, ptr %err, align 4
  %7 = load i32, ptr %err, align 4
  %cmp12 = icmp eq i32 %7, 0
  br i1 %cmp12, label %if.then13, label %if.end16

if.then13:                                        ; preds = %if.end9
  %arraydecay14 = getelementptr inbounds [1 x %struct.sp_int], ptr %stmp, i64 0, i64 0
  %8 = load ptr, ptr %s.addr, align 8
  %call15 = call i32 @sp_read_radix(ptr noundef %arraydecay14, ptr noundef %8, i32 noundef 16)
  store i32 %call15, ptr %err, align 4
  br label %if.end16

if.end16:                                         ; preds = %if.then13, %if.end9
  %9 = load i32, ptr %err, align 4
  %cmp17 = icmp eq i32 %9, 0
  br i1 %cmp17, label %if.then18, label %if.end32

if.then18:                                        ; preds = %if.end16
  %arraydecay19 = getelementptr inbounds [1 x %struct.sp_int], ptr %rtmp, i64 0, i64 0
  %used = getelementptr inbounds %struct.sp_int, ptr %arraydecay19, i32 0, i32 0
  %10 = load i32, ptr %used, align 16
  %cmp20 = icmp eq i32 %10, 0
  %conv = zext i1 %cmp20 to i32
  %cmp21 = icmp eq i32 %conv, 1
  br i1 %cmp21, label %if.then30, label %lor.lhs.false23

lor.lhs.false23:                                  ; preds = %if.then18
  %arraydecay24 = getelementptr inbounds [1 x %struct.sp_int], ptr %stmp, i64 0, i64 0
  %used25 = getelementptr inbounds %struct.sp_int, ptr %arraydecay24, i32 0, i32 0
  %11 = load i32, ptr %used25, align 16
  %cmp26 = icmp eq i32 %11, 0
  %conv27 = zext i1 %cmp26 to i32
  %cmp28 = icmp eq i32 %conv27, 1
  br i1 %cmp28, label %if.then30, label %if.end31

if.then30:                                        ; preds = %lor.lhs.false23, %if.then18
  store i32 -121, ptr %err, align 4
  br label %if.end31

if.end31:                                         ; preds = %if.then30, %lor.lhs.false23
  br label %if.end32

if.end32:                                         ; preds = %if.end31, %if.end16
  %12 = load i32, ptr %err, align 4
  %cmp33 = icmp eq i32 %12, 0
  br i1 %cmp33, label %if.then35, label %if.end36

if.then35:                                        ; preds = %if.end32
  br label %if.end36

if.end36:                                         ; preds = %if.then35, %if.end32
  %13 = load i32, ptr %err, align 4
  %cmp37 = icmp eq i32 %13, 0
  br i1 %cmp37, label %if.then39, label %if.end43

if.then39:                                        ; preds = %if.end36
  %14 = load ptr, ptr %out.addr, align 8
  %15 = load ptr, ptr %outlen.addr, align 8
  %arraydecay40 = getelementptr inbounds [1 x %struct.sp_int], ptr %rtmp, i64 0, i64 0
  %arraydecay41 = getelementptr inbounds [1 x %struct.sp_int], ptr %stmp, i64 0, i64 0
  %call42 = call i32 @StoreECC_DSA_Sig(ptr noundef %14, ptr noundef %15, ptr noundef %arraydecay40, ptr noundef %arraydecay41)
  store i32 %call42, ptr %err, align 4
  br label %if.end43

if.end43:                                         ; preds = %if.then39, %if.end36
  %arraydecay44 = getelementptr inbounds [1 x %struct.sp_int], ptr %rtmp, i64 0, i64 0
  call void @sp_clear(ptr noundef %arraydecay44)
  %arraydecay45 = getelementptr inbounds [1 x %struct.sp_int], ptr %stmp, i64 0, i64 0
  call void @sp_clear(ptr noundef %arraydecay45)
  %16 = load i32, ptr %err, align 4
  store i32 %16, ptr %retval, align 4
  br label %return

return:                                           ; preds = %if.end43, %if.then8, %if.then
  %17 = load i32, ptr %retval, align 4
  ret i32 %17
}