; Function Attrs: nounwind uwtable
define i32 @wc_ecc_rs_to_sig(ptr noundef %r, ptr noundef %s, ptr noundef %out, ptr noundef %outlen) local_unnamed_addr #2 {
entry:
  %rtmp = alloca [1 x %struct.sp_int], align 16
  %stmp = alloca [1 x %struct.sp_int], align 16
  %cmp = icmp eq ptr %r, null
  %cmp1 = icmp eq ptr %s, null
  %or.cond = or i1 %cmp, %cmp1
  %cmp3 = icmp eq ptr %out, null
  %or.cond1 = or i1 %or.cond, %cmp3
  %cmp5 = icmp eq ptr %outlen, null
  %or.cond2 = or i1 %or.cond1, %cmp5
  br i1 %or.cond2, label %return, label %if.end

if.end:                                           ; preds = %entry
  %call = call i32 @sp_init_multi(ptr noundef nonnull %rtmp, ptr noundef nonnull %stmp, ptr noundef null, ptr noundef null, ptr noundef null, ptr noundef null) #19
  %cmp7.not = icmp eq i32 %call, 0
  br i1 %cmp7.not, label %if.end9, label %return

if.end9:                                          ; preds = %if.end
  %call11 = call i32 @sp_read_radix(ptr noundef nonnull %rtmp, ptr noundef nonnull %r, i32 noundef 16) #19
  %cmp12 = icmp eq i32 %call11, 0
  br i1 %cmp12, label %if.end16, label %if.end43

if.end16:                                         ; preds = %if.end9
  %call15 = call i32 @sp_read_radix(ptr noundef nonnull %stmp, ptr noundef nonnull %s, i32 noundef 16) #19
  %cmp17 = icmp eq i32 %call15, 0
  br i1 %cmp17, label %if.then18, label %if.end43

if.then18:                                        ; preds = %if.end16
  %0 = load i32, ptr %rtmp, align 16
  %cmp20 = icmp eq i32 %0, 0
  %1 = load i32, ptr %stmp, align 16
  %cmp26 = icmp eq i32 %1, 0
  %or.cond13 = select i1 %cmp20, i1 true, i1 %cmp26
  br i1 %or.cond13, label %if.end43, label %if.then39

if.then39:                                        ; preds = %if.then18
  %call42 = call i32 @StoreECC_DSA_Sig(ptr noundef nonnull %out, ptr noundef nonnull %outlen, ptr noundef nonnull %rtmp, ptr noundef nonnull %stmp) #19
  br label %if.end43

if.end43:                                         ; preds = %if.then18, %if.end9, %if.end16, %if.then39
  %err.2 = phi i32 [ %call42, %if.then39 ], [ %call15, %if.end16 ], [ %call11, %if.end9 ], [ -121, %if.then18 ]
  call void @sp_clear(ptr noundef nonnull %rtmp) #19
  call void @sp_clear(ptr noundef nonnull %stmp) #19
  br label %return

return:                                           ; preds = %if.end, %entry, %if.end43
  %retval.0 = phi i32 [ %err.2, %if.end43 ], [ -170, %entry ], [ %call, %if.end ]
  ret i32 %retval.0
}